; Function Attrs: nounwind uwtable
define internal void @json_begin_graph(ptr noundef readonly captures(none) %0) #0 {
  %2 = getelementptr inbounds nuw i8, ptr %0, i64 128
  %3 = load i32, ptr %2, align 8, !tbaa !3
  switch i32 %3, label %16 [
    i32 0, label %4
    i32 1, label %12
  ]

4:                                                ; preds = %1
  %5 = load ptr, ptr %0, align 8, !tbaa !30
  %6 = tail call ptr @gvCloneGVC(ptr noundef %5) #15
  %7 = getelementptr inbounds nuw i8, ptr %0, i64 32
  %8 = load ptr, ptr %7, align 8, !tbaa !31
  %9 = getelementptr inbounds nuw i8, ptr %8, i64 16
  %10 = load ptr, ptr %9, align 8, !tbaa !32
  %11 = tail call i32 @gvRender(ptr noundef %6, ptr noundef %10, ptr noundef nonnull @.str.8, ptr noundef null) #15
  tail call void @gvFreeCloneGVC(ptr noundef %6) #15
  br label %16

12:                                               ; preds = %1
  %13 = load ptr, ptr %0, align 8, !tbaa !30
  %14 = getelementptr inbounds nuw i8, ptr %13, i64 304
  %15 = load ptr, ptr %14, align 8, !tbaa !33
  tail call void @attach_attrs(ptr noundef %15) #15
  br label %16

16:                                               ; preds = %1, %12, %4
  ret void
}